target datalayout = "e-m:e-p270:32:32-p271:32:32-p272:64:64-i64:64-i128:128-f80:128-n8:16:32:64-S128"
target triple = "x86_64-pc-linux-gnu"

@tick_start = internal global i64 0, align 8
@.str.4 = private unnamed_addr constant [21 x i8] c"SDL_TIMER_RESOLUTION\00", align 1
@tick_numerator_ns = internal global i32 0, align 4
@tick_denominator_ns = internal global i32 0, align 4
@tick_numerator_ms = internal global i32 0, align 4
@tick_denominator_ms = internal global i32 0, align 4

; Function Attrs: nounwind uwtable
define hidden void @SDL_InitTicks() #0 {
  %1 = alloca i64, align 8
  %2 = alloca i32, align 4
  %3 = alloca i32, align 4
  call void @llvm.lifetime.start.p0(i64 8, ptr %1) #3
  call void @llvm.lifetime.start.p0(i64 4, ptr %2) #3
  %4 = load i64, ptr @tick_start, align 8
  %5 = icmp ne i64 %4, 0
  br i1 %5, label %6, label %7

6:                                                ; preds = %0
  store i32 1, ptr %3, align 4
  br label %42

7:                                                ; preds = %0
  %8 = call zeroext i1 @SDL_AddHintCallback_REAL(ptr noundef @.str.4, ptr noundef @SDL_TimerResolutionChanged, ptr noundef null)
  %9 = call i64 @SDL_GetPerformanceFrequency_REAL()
  store i64 %9, ptr %1, align 8
  br label %10

10:                                               ; preds = %7
  br label %11

11:                                               ; preds = %10
  br label %12

12:                                               ; preds = %11
  %13 = load i64, ptr %1, align 8
  %14 = trunc i64 %13 to i32
  %15 = call i32 @SDL_CalculateGCD(i32 noundef 1000000000, i32 noundef %14)
  store i32 %15, ptr %2, align 4
  %16 = load i32, ptr %2, align 4
  %17 = zext i32 %16 to i64
  %18 = sdiv i64 1000000000, %17
  %19 = trunc i64 %18 to i32
  store i32 %19, ptr @tick_numerator_ns, align 4
  %20 = load i64, ptr %1, align 8
  %21 = load i32, ptr %2, align 4
  %22 = zext i32 %21 to i64
  %23 = udiv i64 %20, %22
  %24 = trunc i64 %23 to i32
  store i32 %24, ptr @tick_denominator_ns, align 4
  %25 = load i64, ptr %1, align 8
  %26 = trunc i64 %25 to i32
  %27 = call i32 @SDL_CalculateGCD(i32 noundef 1000, i32 noundef %26)
  store i32 %27, ptr %2, align 4
  %28 = load i32, ptr %2, align 4
  %29 = udiv i32 1000, %28
  store i32 %29, ptr @tick_numerator_ms, align 4
  %30 = load i64, ptr %1, align 8
  %31 = load i32, ptr %2, align 4
  %32 = zext i32 %31 to i64
  %33 = udiv i64 %30, %32
  %34 = trunc i64 %33 to i32
  store i32 %34, ptr @tick_denominator_ms, align 4
  %35 = call i64 @SDL_GetPerformanceCounter_REAL()
  store i64 %35, ptr @tick_start, align 8
  %36 = load i64, ptr @tick_start, align 8
  %37 = icmp ne i64 %36, 0
  br i1 %37, label %41, label %38

38:                                               ; preds = %12
  %39 = load i64, ptr @tick_start, align 8
  %40 = add i64 %39, -1
  store i64 %40, ptr @tick_start, align 8
  br label %41

41:                                               ; preds = %38, %12
  store i32 0, ptr %3, align 4
  br label %42

42:                                               ; preds = %41, %6
  call void @llvm.lifetime.end.p0(i64 4, ptr %2) #3
  call void @llvm.lifetime.end.p0(i64 8, ptr %1) #3
  %43 = load i32, ptr %3, align 4
  switch i32 %43, label %45 [
    i32 0, label %44
    i32 1, label %44
  ]

44:                                               ; preds = %42, %42
  ret void

45:                                               ; preds = %42
  unreachable
}