; Function Attrs: nounwind uwtable
define hidden void @SDL_InitTicks() local_unnamed_addr #0 {
  %1 = load i64, ptr @tick_start, align 8
  %.not = icmp eq i64 %1, 0
  br i1 %.not, label %2, label %17

2:                                                ; preds = %0
  %3 = tail call zeroext i1 @SDL_AddHintCallback_REAL(ptr noundef nonnull @.str.4, ptr noundef nonnull @SDL_TimerResolutionChanged, ptr noundef null) #3
  %4 = tail call i64 @SDL_GetPerformanceFrequency_REAL() #3
  %5 = trunc i64 %4 to i32
  %6 = tail call i32 @SDL_CalculateGCD(i32 noundef 1000000000, i32 noundef %5) #3
  %7 = zext i32 %6 to i64
  %8 = udiv i32 1000000000, %6
  store i32 %8, ptr @tick_numerator_ns, align 4
  %9 = udiv i64 %4, %7
  %10 = trunc i64 %9 to i32
  store i32 %10, ptr @tick_denominator_ns, align 4
  %11 = tail call i32 @SDL_CalculateGCD(i32 noundef 1000, i32 noundef %5) #3
  %12 = udiv i32 1000, %11
  store i32 %12, ptr @tick_numerator_ms, align 4
  %13 = zext i32 %11 to i64
  %14 = udiv i64 %4, %13
  %15 = trunc i64 %14 to i32
  store i32 %15, ptr @tick_denominator_ms, align 4
  %16 = tail call i64 @SDL_GetPerformanceCounter_REAL() #3
  %.not8 = icmp eq i64 %16, 0
  %spec.select = select i1 %.not8, i64 -1, i64 %16
  store i64 %spec.select, ptr @tick_start, align 8
  br label %17

17:                                               ; preds = %0, %2
  ret void
}